; Function Attrs: mustprogress uwtable
define void @_ZN4YAML7EmitterC2ERSo(ptr noundef nonnull align 8 dereferenceable(72) %0, ptr noundef nonnull align 8 dereferenceable(8) %1) unnamed_addr #0 align 2 personality ptr @__gxx_personality_v0 {
  %3 = tail call noalias noundef nonnull dereferenceable(224) ptr @_Znwm(i64 noundef 224) #16
  invoke void @_ZN4YAML12EmitterStateC1Ev(ptr noundef nonnull align 8 dereferenceable(224) %3)
          to label %4 unwind label %7

4:                                                ; preds = %2
  store ptr %3, ptr %0, align 8, !tbaa !3
  %5 = getelementptr inbounds nuw i8, ptr %0, i64 8
  invoke void @_ZN4YAML15ostream_wrapperC1ERSo(ptr noundef nonnull align 8 dereferenceable(57) %5, ptr noundef nonnull align 8 dereferenceable(8) %1)
          to label %6 unwind label %9

6:                                                ; preds = %4
  ret void

7:                                                ; preds = %2
  %8 = landingpad { ptr, i32 }
          cleanup
  tail call void @_ZdlPv(ptr noundef nonnull %3) #17
  br label %11

9:                                                ; preds = %4
  %10 = landingpad { ptr, i32 }
          cleanup
  tail call void @_ZNSt10unique_ptrIN4YAML12EmitterStateESt14default_deleteIS1_EED2Ev(ptr noundef nonnull align 8 dereferenceable(8) %0) #18
  br label %11

11:                                               ; preds = %9, %7
  %.pn = phi { ptr, i32 } [ %10, %9 ], [ %8, %7 ]
  resume { ptr, i32 } %.pn
}